; Function Attrs: mustprogress nofree norecurse nosync nounwind willreturn memory(argmem: write) uwtable
define range(i32 -173, 1) i32 @wc_AesInit(ptr noundef writeonly captures(address_is_null) %0, ptr noundef %1, i32 noundef %2) local_unnamed_addr #9 {
  %4 = icmp eq ptr %0, null
  br i1 %4, label %7, label %5

5:                                                ; preds = %3
  tail call void @llvm.memset.p0.i64(ptr noundef nonnull align 16 dereferenceable(848) %0, i8 0, i64 848, i1 false)
  %6 = getelementptr inbounds nuw i8, ptr %0, i64 832
  store ptr %1, ptr %6, align 16, !tbaa !45
  br label %7

7:                                                ; preds = %3, %5
  %.0 = phi i32 [ 0, %5 ], [ -173, %3 ]
  ret i32 %.0
}